; Function Attrs: nounwind uwtable
define nonnull ptr @l_Lake_instMaxBuildType___boxed(ptr noundef %0, ptr noundef %1) local_unnamed_addr #1 {
  %3 = ptrtoint ptr %0 to i64
  %4 = and i64 %3, 1
  %.not = icmp eq i64 %4, 0
  br i1 %.not, label %5, label %lean_dec.exit7

5:                                                ; preds = %2
  %6 = load i32, ptr %0, align 4, !tbaa !4
  %7 = icmp sgt i32 %6, 1
  br i1 %7, label %8, label %10, !prof !9

8:                                                ; preds = %5
  %9 = add nsw i32 %6, -1
  store i32 %9, ptr %0, align 4, !tbaa !4
  br label %lean_dec.exit7

10:                                               ; preds = %5
  %.not.i = icmp eq i32 %6, 0
  br i1 %.not.i, label %lean_dec.exit7, label %11

11:                                               ; preds = %10
  tail call void @lean_dec_ref_cold(ptr noundef nonnull %0) #8
  br label %lean_dec.exit7

lean_dec.exit7:                                   ; preds = %11, %10, %8, %2
  %12 = ptrtoint ptr %1 to i64
  %13 = and i64 %12, 1
  %.not10 = icmp eq i64 %13, 0
  br i1 %.not10, label %14, label %lean_dec.exit

14:                                               ; preds = %lean_dec.exit7
  %15 = load i32, ptr %1, align 4, !tbaa !4
  %16 = icmp sgt i32 %15, 1
  br i1 %16, label %17, label %19, !prof !9

17:                                               ; preds = %14
  %18 = add nsw i32 %15, -1
  store i32 %18, ptr %1, align 4, !tbaa !4
  br label %lean_dec.exit

19:                                               ; preds = %14
  %.not.i8 = icmp eq i32 %15, 0
  br i1 %.not.i8, label %lean_dec.exit, label %20

20:                                               ; preds = %19
  tail call void @lean_dec_ref_cold(ptr noundef nonnull %1) #8
  br label %lean_dec.exit

lean_dec.exit:                                    ; preds = %20, %19, %17, %lean_dec.exit7
  %21 = load ptr, ptr @l_Lake_instOrdBuildType, align 8, !tbaa !10
  %22 = and i64 %3, 510
  %23 = or disjoint i64 %22, 1
  %24 = inttoptr i64 %23 to ptr
  %25 = and i64 %12, 510
  %26 = or disjoint i64 %25, 1
  %27 = inttoptr i64 %26 to ptr
  %28 = tail call zeroext i8 @l_Ord_instDecidableRelLe___rarg(ptr noundef %21, ptr noundef nonnull %24, ptr noundef nonnull %27) #8
  %29 = icmp eq i8 %28, 0
  %..i.v.v = select i1 %29, i64 %3, i64 %12
  %30 = and i64 %..i.v.v, 510
  %31 = or disjoint i64 %30, 1
  %32 = inttoptr i64 %31 to ptr
  ret ptr %32
}